target datalayout = "e-m:e-p270:32:32-p271:32:32-p272:64:64-i64:64-i128:128-f80:128-n8:16:32:64-S128"
target triple = "x86_64-pc-linux-gnu"

%class.symbol = type { ptr }
%class.eval_cmd = type { %class.parametric_cmd, ptr, %class.symbol }
%class.parametric_cmd = type { %class.cmd, %class.symbol, ptr, %class.params_ref, %class.scoped_ptr.65 }
%class.cmd = type { ptr, %class.symbol, i32, i32 }
%class.params_ref = type { ptr }
%class.scoped_ptr.65 = type { ptr }

@.str = private unnamed_addr constant [5 x i8] c"eval\00", align 1
@_ZTV14parametric_cmd = external unnamed_addr constant { [32 x ptr] }, align 8

; Function Attrs: mustprogress nounwind uwtable
define linkonce_odr hidden void @_ZN3cmdD2Ev(ptr noundef nonnull align 8 dereferenceable(24) %0) unnamed_addr #5 comdat align 2 {
  %2 = alloca ptr, align 8
  store ptr %0, ptr %2, align 8, !tbaa !29
  ret void
}

; Function Attrs: mustprogress nounwind uwtable
define linkonce_odr hidden void @_ZN10scoped_ptrI12param_descrsEC2EPS0_(ptr noundef nonnull align 8 dereferenceable(8) %0, ptr noundef %1) unnamed_addr #5 comdat align 2 {
  %3 = alloca ptr, align 8
  %4 = alloca ptr, align 8
  store ptr %0, ptr %3, align 8, !tbaa !68
  store ptr %1, ptr %4, align 8, !tbaa !62
  %5 = load ptr, ptr %3, align 8
  %6 = getelementptr inbounds nuw %class.scoped_ptr.65, ptr %5, i32 0, i32 0
  %7 = load ptr, ptr %4, align 8, !tbaa !62
  store ptr %7, ptr %6, align 8, !tbaa !70
  ret void
}

; Function Attrs: mustprogress nounwind uwtable
define linkonce_odr hidden void @_ZN10params_refC2Ev(ptr noundef nonnull align 8 dereferenceable(8) %0) unnamed_addr #5 comdat align 2 {
  %2 = alloca ptr, align 8
  store ptr %0, ptr %2, align 8, !tbaa !65
  %3 = load ptr, ptr %2, align 8
  %4 = getelementptr inbounds nuw %class.params_ref, ptr %3, i32 0, i32 0
  store ptr null, ptr %4, align 8, !tbaa !67
  ret void
}

; Function Attrs: mustprogress uwtable
define linkonce_odr hidden void @_ZN3cmdC2EPKc(ptr noundef nonnull align 8 dereferenceable(24) %0, ptr noundef %1) unnamed_addr #4 comdat align 2 {
  %3 = alloca ptr, align 8
  %4 = alloca ptr, align 8
  store ptr %0, ptr %3, align 8, !tbaa !29
  store ptr %1, ptr %4, align 8, !tbaa !14
  %5 = load ptr, ptr %3, align 8
  store ptr getelementptr inbounds inrange(-16, 224) ({ [30 x ptr] }, ptr @_ZTV3cmd, i32 0, i32 0, i32 2), ptr %5, align 8, !tbaa !10
  %6 = getelementptr inbounds nuw %class.cmd, ptr %5, i32 0, i32 1
  %7 = load ptr, ptr %4, align 8, !tbaa !14
  call void @_ZN6symbolC1EPKc(ptr noundef nonnull align 8 dereferenceable(8) %6, ptr noundef %7)
  %8 = getelementptr inbounds nuw %class.cmd, ptr %5, i32 0, i32 2
  store i32 0, ptr %8, align 8, !tbaa !63
  %9 = getelementptr inbounds nuw %class.cmd, ptr %5, i32 0, i32 3
  store i32 0, ptr %9, align 4, !tbaa !64
  ret void
}

; Function Attrs: mustprogress nounwind uwtable
define linkonce_odr hidden void @_ZN6symbolC2Ev(ptr noundef nonnull align 8 dereferenceable(8) %0) unnamed_addr #5 comdat align 2 {
  %2 = alloca ptr, align 8
  store ptr %0, ptr %2, align 8, !tbaa !26
  %3 = load ptr, ptr %2, align 8
  %4 = getelementptr inbounds nuw %class.symbol, ptr %3, i32 0, i32 0
  store ptr null, ptr %4, align 8, !tbaa !28
  ret void
}

; Function Attrs: mustprogress uwtable
define linkonce_odr hidden void @_ZN14parametric_cmdC2EPKc(ptr noundef nonnull align 8 dereferenceable(56) %0, ptr noundef %1) unnamed_addr #4 comdat align 2 personality ptr @__gxx_personality_v0 {
  %3 = alloca ptr, align 8
  %4 = alloca ptr, align 8
  %5 = alloca ptr, align 8
  %6 = alloca i32, align 4
  store ptr %0, ptr %3, align 8, !tbaa !12
  store ptr %1, ptr %4, align 8, !tbaa !14
  %7 = load ptr, ptr %3, align 8
  %8 = load ptr, ptr %4, align 8, !tbaa !14
  call void @_ZN3cmdC2EPKc(ptr noundef nonnull align 8 dereferenceable(24) %7, ptr noundef %8)
  store ptr getelementptr inbounds inrange(-16, 240) ({ [32 x ptr] }, ptr @_ZTV14parametric_cmd, i32 0, i32 0, i32 2), ptr %7, align 8, !tbaa !10
  %9 = getelementptr inbounds nuw %class.parametric_cmd, ptr %7, i32 0, i32 1
  call void @_ZN6symbolC2Ev(ptr noundef nonnull align 8 dereferenceable(8) %9) #3
  %10 = getelementptr inbounds nuw %class.parametric_cmd, ptr %7, i32 0, i32 2
  store ptr null, ptr %10, align 8, !tbaa !16
  %11 = getelementptr inbounds nuw %class.parametric_cmd, ptr %7, i32 0, i32 3
  call void @_ZN10params_refC2Ev(ptr noundef nonnull align 8 dereferenceable(8) %11) #3
  %12 = getelementptr inbounds nuw %class.parametric_cmd, ptr %7, i32 0, i32 4
  invoke void @_ZN10scoped_ptrI12param_descrsEC2EPS0_(ptr noundef nonnull align 8 dereferenceable(8) %12, ptr noundef null)
          to label %13 unwind label %14

13:                                               ; preds = %2
  ret void

14:                                               ; preds = %2
  %15 = landingpad { ptr, i32 }
          cleanup
  %16 = extractvalue { ptr, i32 } %15, 0
  store ptr %16, ptr %5, align 8
  %17 = extractvalue { ptr, i32 } %15, 1
  store i32 %17, ptr %6, align 4
  call void @_ZN10params_refD1Ev(ptr noundef nonnull align 8 dereferenceable(8) %11) #3
  call void @_ZN3cmdD2Ev(ptr noundef nonnull align 8 dereferenceable(24) %7) #3
  br label %18

18:                                               ; preds = %14
  %19 = load ptr, ptr %5, align 8
  %20 = load i32, ptr %6, align 4
  %21 = insertvalue { ptr, i32 } poison, ptr %19, 0
  %22 = insertvalue { ptr, i32 } %21, i32 %20, 1
  resume { ptr, i32 } %22
}

; Function Attrs: mustprogress uwtable
define linkonce_odr hidden void @_ZN8eval_cmdC2Ev(ptr noundef nonnull align 8 dereferenceable(72) %0) unnamed_addr #4 comdat align 2 {
  %2 = alloca ptr, align 8
  store ptr %0, ptr %2, align 8, !tbaa !8
  %3 = load ptr, ptr %2, align 8
  call void @_ZN14parametric_cmdC2EPKc(ptr noundef nonnull align 8 dereferenceable(56) %3, ptr noundef @.str)
  store ptr getelementptr inbounds inrange(-16, 240) ({ [32 x ptr] }, ptr @_ZTV8eval_cmd, i32 0, i32 0, i32 2), ptr %3, align 8, !tbaa !10
  %4 = getelementptr inbounds nuw %class.eval_cmd, ptr %3, i32 0, i32 2
  call void @_ZN6symbolC2Ev(ptr noundef nonnull align 8 dereferenceable(8) %4) #3
  ret void
}

; Function Attrs: mustprogress uwtable
define hidden void @_Z16install_eval_cmdR11cmd_context(ptr noundef nonnull align 8 dereferenceable(896) %0) #4 {
  %2 = alloca ptr, align 8
  store ptr %0, ptr %2, align 8, !tbaa !3
  %3 = load ptr, ptr %2, align 8, !tbaa !3
  %4 = call noalias noundef ptr @_ZN6memory8allocateEm(i64 noundef 72)
  call void @_ZN8eval_cmdC2Ev(ptr noundef nonnull align 8 dereferenceable(72) %4)
  call void @_ZN11cmd_context6insertEP3cmd(ptr noundef nonnull align 8 dereferenceable(896) %3, ptr noundef %4)
  ret void
}